target datalayout = "e-m:e-p270:32:32-p271:32:32-p272:64:64-i64:64-i128:128-f80:128-n8:16:32:64-S128"
target triple = "x86_64-pc-linux-gnu"

%struct.expert_info_s = type { i32, i32, i32, i32, ptr, ptr, ptr }
%class.ExpertPacketItem = type { ptr, i32, i32, i32, i32, %class.QByteArray, %class.QByteArray, %class.QByteArray, %class.QList, ptr, %class.QHash }
%class.QByteArray = type { %struct.QArrayDataPointer }
%struct.QArrayDataPointer = type { ptr, ptr, i64 }
%class.QList = type { %struct.QArrayDataPointer.0 }
%struct.QArrayDataPointer.0 = type { ptr, ptr, i64 }
%class.QHash = type { ptr }

@_ZTV16ExpertPacketItem = unnamed_addr constant { [4 x ptr] } { [4 x ptr] [ptr null, ptr @_ZTI16ExpertPacketItem, ptr @_ZN16ExpertPacketItemD1Ev, ptr @_ZN16ExpertPacketItemD0Ev] }, align 8

; Function Attrs: mustprogress nounwind null_pointer_is_valid sspstrong uwtable
define linkonce_odr void @_ZN17QArrayDataPointerIP16ExpertPacketItemEC2Ev(ptr noundef align 8 dereferenceable_or_null(24) %0) unnamed_addr #3 comdat align 2 {
  %2 = alloca ptr, align 8
  store ptr %0, ptr %2, align 8
  %3 = load ptr, ptr %2, align 8
  %4 = getelementptr inbounds nuw %struct.QArrayDataPointer.0, ptr %3, i32 0, i32 0
  store ptr null, ptr %4, align 8
  %5 = getelementptr inbounds nuw %struct.QArrayDataPointer.0, ptr %3, i32 0, i32 1
  store ptr null, ptr %5, align 8
  %6 = getelementptr inbounds nuw %struct.QArrayDataPointer.0, ptr %3, i32 0, i32 2
  store i64 0, ptr %6, align 8
  ret void
}

; Function Attrs: mustprogress nounwind null_pointer_is_valid sspstrong uwtable
define linkonce_odr void @_ZN17QArrayDataPointerIcEC2Ev(ptr noundef align 8 dereferenceable_or_null(24) %0) unnamed_addr #3 comdat align 2 {
  %2 = alloca ptr, align 8
  store ptr %0, ptr %2, align 8
  %3 = load ptr, ptr %2, align 8
  %4 = getelementptr inbounds nuw %struct.QArrayDataPointer, ptr %3, i32 0, i32 0
  store ptr null, ptr %4, align 8
  %5 = getelementptr inbounds nuw %struct.QArrayDataPointer, ptr %3, i32 0, i32 1
  store ptr null, ptr %5, align 8
  %6 = getelementptr inbounds nuw %struct.QArrayDataPointer, ptr %3, i32 0, i32 2
  store i64 0, ptr %6, align 8
  ret void
}

; Function Attrs: inlinehint mustprogress nounwind null_pointer_is_valid sspstrong uwtable
define linkonce_odr void @_ZN5QHashI7QStringP16ExpertPacketItemEC2Ev(ptr noundef align 8 dereferenceable_or_null(8) %0) unnamed_addr #2 comdat align 2 {
  %2 = alloca ptr, align 8
  store ptr %0, ptr %2, align 8
  %3 = load ptr, ptr %2, align 8
  %4 = getelementptr inbounds nuw %class.QHash, ptr %3, i32 0, i32 0
  store ptr null, ptr %4, align 8
  ret void
}

; Function Attrs: mustprogress nounwind null_pointer_is_valid sspstrong uwtable
define linkonce_odr void @_ZN5QListIP16ExpertPacketItemEC2Ev(ptr noundef align 8 dereferenceable_or_null(24) %0) unnamed_addr #3 comdat align 2 {
  %2 = alloca ptr, align 8
  store ptr %0, ptr %2, align 8
  %3 = load ptr, ptr %2, align 8
  %4 = getelementptr inbounds nuw %class.QList, ptr %3, i32 0, i32 0
  call void @_ZN17QArrayDataPointerIP16ExpertPacketItemEC2Ev(ptr noundef align 8 dereferenceable_or_null(24) %4) #10
  ret void
}

; Function Attrs: inlinehint mustprogress nounwind null_pointer_is_valid sspstrong uwtable
define linkonce_odr void @_ZN10QByteArrayC2Ev(ptr noundef align 8 dereferenceable_or_null(24) %0) unnamed_addr #2 comdat align 2 {
  %2 = alloca ptr, align 8
  store ptr %0, ptr %2, align 8
  %3 = load ptr, ptr %2, align 8
  %4 = getelementptr inbounds nuw %class.QByteArray, ptr %3, i32 0, i32 0
  call void @_ZN17QArrayDataPointerIcEC2Ev(ptr noundef align 8 dereferenceable_or_null(24) %4) #10
  ret void
}

; Function Attrs: mustprogress null_pointer_is_valid sspstrong uwtable
define void @_ZN16ExpertPacketItemC2ERK13expert_info_sP16epan_column_infoPS_(ptr noundef align 8 dereferenceable_or_null(136) %0, ptr noundef align 8 dereferenceable(40) %1, ptr noundef %2, ptr noundef %3) unnamed_addr #0 align 2 personality ptr @__gxx_personality_v0 {
  %5 = alloca ptr, align 8
  %6 = alloca ptr, align 8
  %7 = alloca ptr, align 8
  %8 = alloca ptr, align 8
  %9 = alloca ptr, align 8
  %10 = alloca i32, align 4
  store ptr %0, ptr %5, align 8
  store ptr %1, ptr %6, align 8
  store ptr %2, ptr %7, align 8
  store ptr %3, ptr %8, align 8
  %11 = load ptr, ptr %5, align 8
  store ptr getelementptr inbounds inrange(-16, 16) ({ [4 x ptr] }, ptr @_ZTV16ExpertPacketItem, i32 0, i32 0, i32 2), ptr %11, align 8
  %12 = getelementptr inbounds nuw %class.ExpertPacketItem, ptr %11, i32 0, i32 1
  %13 = load ptr, ptr %6, align 8
  %14 = getelementptr inbounds nuw %struct.expert_info_s, ptr %13, i32 0, i32 0
  %15 = load i32, ptr %14, align 8
  store i32 %15, ptr %12, align 8
  %16 = getelementptr inbounds nuw %class.ExpertPacketItem, ptr %11, i32 0, i32 2
  %17 = load ptr, ptr %6, align 8
  %18 = getelementptr inbounds nuw %struct.expert_info_s, ptr %17, i32 0, i32 1
  %19 = load i32, ptr %18, align 4
  store i32 %19, ptr %16, align 4
  %20 = getelementptr inbounds nuw %class.ExpertPacketItem, ptr %11, i32 0, i32 3
  %21 = load ptr, ptr %6, align 8
  %22 = getelementptr inbounds nuw %struct.expert_info_s, ptr %21, i32 0, i32 2
  %23 = load i32, ptr %22, align 8
  store i32 %23, ptr %20, align 8
  %24 = getelementptr inbounds nuw %class.ExpertPacketItem, ptr %11, i32 0, i32 4
  %25 = load ptr, ptr %6, align 8
  %26 = getelementptr inbounds nuw %struct.expert_info_s, ptr %25, i32 0, i32 3
  %27 = load i32, ptr %26, align 4
  store i32 %27, ptr %24, align 4
  %28 = getelementptr inbounds nuw %class.ExpertPacketItem, ptr %11, i32 0, i32 5
  %29 = load ptr, ptr %6, align 8
  %30 = getelementptr inbounds nuw %struct.expert_info_s, ptr %29, i32 0, i32 4
  %31 = load ptr, ptr %30, align 8
  call void @_ZN10QByteArrayC1EPKcx(ptr noundef align 8 dereferenceable_or_null(24) %28, ptr noundef %31, i64 noundef -1)
  %32 = getelementptr inbounds nuw %class.ExpertPacketItem, ptr %11, i32 0, i32 6
  %33 = load ptr, ptr %6, align 8
  %34 = getelementptr inbounds nuw %struct.expert_info_s, ptr %33, i32 0, i32 5
  %35 = load ptr, ptr %34, align 8
  invoke void @_ZN10QByteArrayC1EPKcx(ptr noundef align 8 dereferenceable_or_null(24) %32, ptr noundef %35, i64 noundef -1)
          to label %36 unwind label %51

36:                                               ; preds = %4
  %37 = getelementptr inbounds nuw %class.ExpertPacketItem, ptr %11, i32 0, i32 7
  call void @_ZN10QByteArrayC2Ev(ptr noundef align 8 dereferenceable_or_null(24) %37) #10
  %38 = getelementptr inbounds nuw %class.ExpertPacketItem, ptr %11, i32 0, i32 8
  call void @_ZN5QListIP16ExpertPacketItemEC2Ev(ptr noundef align 8 dereferenceable_or_null(24) %38) #10
  %39 = getelementptr inbounds nuw %class.ExpertPacketItem, ptr %11, i32 0, i32 9
  %40 = load ptr, ptr %8, align 8
  store ptr %40, ptr %39, align 8
  %41 = getelementptr inbounds nuw %class.ExpertPacketItem, ptr %11, i32 0, i32 10
  call void @_ZN5QHashI7QStringP16ExpertPacketItemEC2Ev(ptr noundef align 8 dereferenceable_or_null(8) %41) #10
  %42 = load ptr, ptr %7, align 8
  %43 = icmp ne ptr %42, null
  br i1 %43, label %44, label %59

44:                                               ; preds = %36
  %45 = load ptr, ptr %7, align 8
  %46 = invoke ptr @col_get_text(ptr noundef %45, i32 noundef 25)
          to label %47 unwind label %55

47:                                               ; preds = %44
  %48 = getelementptr inbounds nuw %class.ExpertPacketItem, ptr %11, i32 0, i32 7
  %49 = invoke noundef align 8 dereferenceable(24) ptr @_ZN10QByteArrayaSEPKc(ptr noundef align 8 dereferenceable_or_null(24) %48, ptr noundef %46)
          to label %50 unwind label %55

50:                                               ; preds = %47
  br label %59

51:                                               ; preds = %4
  %52 = landingpad { ptr, i32 }
          cleanup
  %53 = extractvalue { ptr, i32 } %52, 0
  store ptr %53, ptr %9, align 8
  %54 = extractvalue { ptr, i32 } %52, 1
  store i32 %54, ptr %10, align 4
  br label %60

55:                                               ; preds = %47, %44
  %56 = landingpad { ptr, i32 }
          cleanup
  %57 = extractvalue { ptr, i32 } %56, 0
  store ptr %57, ptr %9, align 8
  %58 = extractvalue { ptr, i32 } %56, 1
  store i32 %58, ptr %10, align 4
  call void @_ZN5QHashI7QStringP16ExpertPacketItemED2Ev(ptr noundef align 8 dereferenceable_or_null(8) %41) #10
  call void @_ZN5QListIP16ExpertPacketItemED2Ev(ptr noundef align 8 dereferenceable_or_null(24) %38) #10
  call void @_ZN10QByteArrayD2Ev(ptr noundef align 8 dereferenceable_or_null(24) %37) #10
  call void @_ZN10QByteArrayD2Ev(ptr noundef align 8 dereferenceable_or_null(24) %32) #10
  br label %60

59:                                               ; preds = %50, %36
  ret void

60:                                               ; preds = %55, %51
  call void @_ZN10QByteArrayD2Ev(ptr noundef align 8 dereferenceable_or_null(24) %28) #10
  br label %61

61:                                               ; preds = %60
  %62 = load ptr, ptr %9, align 8
  %63 = load i32, ptr %10, align 4
  %64 = insertvalue { ptr, i32 } poison, ptr %62, 0
  %65 = insertvalue { ptr, i32 } %64, i32 %63, 1
  resume { ptr, i32 } %65
}