; Function Attrs: mustprogress null_pointer_is_valid sspstrong uwtable
define void @_ZN16ExpertPacketItemC2ERK13expert_info_sP16epan_column_infoPS_(ptr noundef align 8 dereferenceable_or_null(136) initializes((0, 24)) %0, ptr noundef readonly align 8 captures(none) dereferenceable(40) %1, ptr noundef %2, ptr noundef %3) unnamed_addr #0 align 2 personality ptr @__gxx_personality_v0 {
  store ptr getelementptr inbounds nuw inrange(-16, 16) (i8, ptr @_ZTV16ExpertPacketItem, i64 16), ptr %0, align 8
  %5 = getelementptr inbounds nuw i8, ptr %0, i64 8
  %6 = load i32, ptr %1, align 8
  store i32 %6, ptr %5, align 8
  %7 = getelementptr inbounds nuw i8, ptr %0, i64 12
  %8 = getelementptr inbounds nuw i8, ptr %1, i64 4
  %9 = load i32, ptr %8, align 4
  store i32 %9, ptr %7, align 4
  %10 = getelementptr inbounds nuw i8, ptr %0, i64 16
  %11 = getelementptr inbounds nuw i8, ptr %1, i64 8
  %12 = load i32, ptr %11, align 8
  store i32 %12, ptr %10, align 8
  %13 = getelementptr inbounds nuw i8, ptr %0, i64 20
  %14 = getelementptr inbounds nuw i8, ptr %1, i64 12
  %15 = load i32, ptr %14, align 4
  store i32 %15, ptr %13, align 4
  %16 = getelementptr inbounds nuw i8, ptr %0, i64 24
  %17 = getelementptr inbounds nuw i8, ptr %1, i64 16
  %18 = load ptr, ptr %17, align 8
  tail call void @_ZN10QByteArrayC1EPKcx(ptr noundef nonnull align 8 dereferenceable_or_null(24) %16, ptr noundef %18, i64 noundef -1)
  %19 = getelementptr inbounds nuw i8, ptr %0, i64 48
  %20 = getelementptr inbounds nuw i8, ptr %1, i64 24
  %21 = load ptr, ptr %20, align 8
  invoke void @_ZN10QByteArrayC1EPKcx(ptr noundef nonnull align 8 dereferenceable_or_null(24) %19, ptr noundef %21, i64 noundef -1)
          to label %22 unwind label %31

22:                                               ; preds = %4
  %23 = getelementptr inbounds nuw i8, ptr %0, i64 72
  %24 = getelementptr inbounds nuw i8, ptr %0, i64 96
  %25 = getelementptr inbounds nuw i8, ptr %0, i64 120
  tail call void @llvm.memset.p0.i64(ptr noundef nonnull align 8 dereferenceable(48) %23, i8 0, i64 48, i1 false)
  store ptr %3, ptr %25, align 8
  %26 = getelementptr inbounds nuw i8, ptr %0, i64 128
  store ptr null, ptr %26, align 8
  %.not = icmp eq ptr %2, null
  br i1 %.not, label %35, label %27

27:                                               ; preds = %22
  %28 = invoke ptr @col_get_text(ptr noundef nonnull %2, i32 noundef 25)
          to label %29 unwind label %33

29:                                               ; preds = %27
  %30 = invoke noundef align 8 dereferenceable(24) ptr @_ZN10QByteArrayaSEPKc(ptr noundef nonnull align 8 dereferenceable_or_null(24) %23, ptr noundef %28)
          to label %35 unwind label %33

31:                                               ; preds = %4
  %32 = landingpad { ptr, i32 }
          cleanup
  br label %36

33:                                               ; preds = %29, %27
  %34 = landingpad { ptr, i32 }
          cleanup
  tail call void @_ZN5QHashI7QStringP16ExpertPacketItemED2Ev(ptr noundef nonnull align 8 dereferenceable_or_null(8) %26) #26
  tail call void @_ZN5QListIP16ExpertPacketItemED2Ev(ptr noundef nonnull align 8 dereferenceable_or_null(24) %24) #26
  tail call void @_ZN10QByteArrayD2Ev(ptr noundef nonnull align 8 dereferenceable_or_null(24) %23) #26
  tail call void @_ZN10QByteArrayD2Ev(ptr noundef nonnull align 8 dereferenceable_or_null(24) %19) #26
  br label %36

35:                                               ; preds = %29, %22
  ret void

36:                                               ; preds = %33, %31
  %.pn = phi { ptr, i32 } [ %34, %33 ], [ %32, %31 ]
  tail call void @_ZN10QByteArrayD2Ev(ptr noundef nonnull align 8 dereferenceable_or_null(24) %16) #26
  resume { ptr, i32 } %.pn
}